target datalayout = "e-m:e-p270:32:32-p271:32:32-p272:64:64-i64:64-i128:128-f80:128-n8:16:32:64-S128"
target triple = "x86_64-pc-linux-gnu"

%struct.jv_parser = type { ptr, i32, i32, i32, i32, i32, i32, ptr, i32, i32, %struct.jv, i32, %struct.jv, %struct.jv, ptr, i32, i32, i32, i32, %struct.dtoa_context, i32, i8 }
%struct.jv = type { i8, i8, i16, i32, %union.anon }
%union.anon = type { ptr }
%struct.dtoa_context = type { [8 x ptr], ptr }

@.str.37 = private unnamed_addr constant [34 x i8] c"Expected separator between values\00", align 1
@.str.45 = private unnamed_addr constant [5 x i8] c"true\00", align 1
@.str.46 = private unnamed_addr constant [6 x i8] c"false\00", align 1
@.str.47 = private unnamed_addr constant [46 x i8] c"Invalid string literal; expected \22, but got '\00", align 1
@.str.48 = private unnamed_addr constant [5 x i8] c"null\00", align 1
@.str.49 = private unnamed_addr constant [16 x i8] c"Invalid literal\00", align 1
@.str.50 = private unnamed_addr constant [24 x i8] c"Invalid numeric literal\00", align 1

; Function Attrs: nounwind uwtable
define internal i32 @jv_is_valid(i64 %0, ptr %1) #0 {
  %3 = alloca %struct.jv, align 8
  %4 = getelementptr inbounds nuw { i64, ptr }, ptr %3, i32 0, i32 0
  store i64 %0, ptr %4, align 8
  %5 = getelementptr inbounds nuw { i64, ptr }, ptr %3, i32 0, i32 1
  store ptr %1, ptr %5, align 8
  %6 = getelementptr inbounds nuw { i64, ptr }, ptr %3, i32 0, i32 0
  %7 = load i64, ptr %6, align 8
  %8 = getelementptr inbounds nuw { i64, ptr }, ptr %3, i32 0, i32 1
  %9 = load ptr, ptr %8, align 8
  %10 = call i32 @jv_get_kind(i64 %7, ptr %9)
  %11 = icmp ne i32 %10, 0
  %12 = zext i1 %11 to i32
  ret i32 %12
}

; Function Attrs: nounwind uwtable
define internal ptr @value(ptr noundef %0, i64 %1, ptr %2) #0 {
  %4 = alloca ptr, align 8
  %5 = alloca %struct.jv, align 8
  %6 = alloca ptr, align 8
  %7 = getelementptr inbounds nuw { i64, ptr }, ptr %5, i32 0, i32 0
  store i64 %1, ptr %7, align 8
  %8 = getelementptr inbounds nuw { i64, ptr }, ptr %5, i32 0, i32 1
  store ptr %2, ptr %8, align 8
  store ptr %0, ptr %6, align 8, !tbaa !8
  %9 = load ptr, ptr %6, align 8, !tbaa !8
  %10 = getelementptr inbounds nuw %struct.jv_parser, ptr %9, i32 0, i32 6
  %11 = load i32, ptr %10, align 4, !tbaa !11
  %12 = and i32 %11, 2
  %13 = icmp ne i32 %12, 0
  br i1 %13, label %14, label %45

14:                                               ; preds = %3
  %15 = load ptr, ptr %6, align 8, !tbaa !8
  %16 = getelementptr inbounds nuw %struct.jv_parser, ptr %15, i32 0, i32 13
  %17 = getelementptr inbounds nuw { i64, ptr }, ptr %16, i32 0, i32 0
  %18 = load i64, ptr %17, align 8
  %19 = getelementptr inbounds nuw { i64, ptr }, ptr %16, i32 0, i32 1
  %20 = load ptr, ptr %19, align 8
  %21 = call i32 @jv_is_valid(i64 %18, ptr %20)
  %22 = icmp ne i32 %21, 0
  br i1 %22, label %28, label %23

23:                                               ; preds = %14
  %24 = load ptr, ptr %6, align 8, !tbaa !8
  %25 = getelementptr inbounds nuw %struct.jv_parser, ptr %24, i32 0, i32 11
  %26 = load i32, ptr %25, align 8, !tbaa !24
  %27 = icmp eq i32 %26, 86
  br i1 %27, label %28, label %33

28:                                               ; preds = %23, %14
  %29 = getelementptr inbounds nuw { i64, ptr }, ptr %5, i32 0, i32 0
  %30 = load i64, ptr %29, align 8
  %31 = getelementptr inbounds nuw { i64, ptr }, ptr %5, i32 0, i32 1
  %32 = load ptr, ptr %31, align 8
  call void @jv_free(i64 %30, ptr %32)
  store ptr @.str.37, ptr %4, align 8
  br label %69

33:                                               ; preds = %23
  %34 = load ptr, ptr %6, align 8, !tbaa !8
  %35 = getelementptr inbounds nuw %struct.jv_parser, ptr %34, i32 0, i32 9
  %36 = load i32, ptr %35, align 4, !tbaa !23
  %37 = icmp sgt i32 %36, 0
  br i1 %37, label %38, label %41

38:                                               ; preds = %33
  %39 = load ptr, ptr %6, align 8, !tbaa !8
  %40 = getelementptr inbounds nuw %struct.jv_parser, ptr %39, i32 0, i32 11
  store i32 86, ptr %40, align 8, !tbaa !24
  br label %44

41:                                               ; preds = %33
  %42 = load ptr, ptr %6, align 8, !tbaa !8
  %43 = getelementptr inbounds nuw %struct.jv_parser, ptr %42, i32 0, i32 11
  store i32 0, ptr %43, align 8, !tbaa !24
  br label %44

44:                                               ; preds = %41, %38
  br label %60

45:                                               ; preds = %3
  %46 = load ptr, ptr %6, align 8, !tbaa !8
  %47 = getelementptr inbounds nuw %struct.jv_parser, ptr %46, i32 0, i32 13
  %48 = getelementptr inbounds nuw { i64, ptr }, ptr %47, i32 0, i32 0
  %49 = load i64, ptr %48, align 8
  %50 = getelementptr inbounds nuw { i64, ptr }, ptr %47, i32 0, i32 1
  %51 = load ptr, ptr %50, align 8
  %52 = call i32 @jv_is_valid(i64 %49, ptr %51)
  %53 = icmp ne i32 %52, 0
  br i1 %53, label %54, label %59

54:                                               ; preds = %45
  %55 = getelementptr inbounds nuw { i64, ptr }, ptr %5, i32 0, i32 0
  %56 = load i64, ptr %55, align 8
  %57 = getelementptr inbounds nuw { i64, ptr }, ptr %5, i32 0, i32 1
  %58 = load ptr, ptr %57, align 8
  call void @jv_free(i64 %56, ptr %58)
  store ptr @.str.37, ptr %4, align 8
  br label %69

59:                                               ; preds = %45
  br label %60

60:                                               ; preds = %59, %44
  %61 = load ptr, ptr %6, align 8, !tbaa !8
  %62 = getelementptr inbounds nuw %struct.jv_parser, ptr %61, i32 0, i32 13
  %63 = getelementptr inbounds nuw { i64, ptr }, ptr %62, i32 0, i32 0
  %64 = load i64, ptr %63, align 8
  %65 = getelementptr inbounds nuw { i64, ptr }, ptr %62, i32 0, i32 1
  %66 = load ptr, ptr %65, align 8
  call void @jv_free(i64 %64, ptr %66)
  %67 = load ptr, ptr %6, align 8, !tbaa !8
  %68 = getelementptr inbounds nuw %struct.jv_parser, ptr %67, i32 0, i32 13
  call void @llvm.memcpy.p0.p0.i64(ptr align 8 %68, ptr align 8 %5, i64 16, i1 false), !tbaa.struct !18
  store ptr null, ptr %4, align 8
  br label %69

69:                                               ; preds = %60, %54, %28
  %70 = load ptr, ptr %4, align 8
  ret ptr %70
}

; Function Attrs: nounwind uwtable
define internal ptr @check_literal(ptr noundef %0) #0 {
  %2 = alloca ptr, align 8
  %3 = alloca ptr, align 8
  %4 = alloca ptr, align 8
  %5 = alloca i32, align 4
  %6 = alloca %struct.jv, align 8
  %7 = alloca %struct.jv, align 8
  %8 = alloca %struct.jv, align 8
  %9 = alloca i32, align 4
  %10 = alloca %struct.jv, align 8
  %11 = alloca i32, align 4
  %12 = alloca ptr, align 8
  %13 = alloca %struct.jv, align 8
  %14 = alloca ptr, align 8
  store ptr %0, ptr %3, align 8, !tbaa !8
  %15 = load ptr, ptr %3, align 8, !tbaa !8
  %16 = getelementptr inbounds nuw %struct.jv_parser, ptr %15, i32 0, i32 15
  %17 = load i32, ptr %16, align 8, !tbaa !26
  %18 = icmp eq i32 %17, 0
  br i1 %18, label %19, label %20

19:                                               ; preds = %1
  store ptr null, ptr %2, align 8
  br label %161

20:                                               ; preds = %1
  call void @llvm.lifetime.start.p0(i64 8, ptr %4) #6
  store ptr null, ptr %4, align 8, !tbaa !37
  call void @llvm.lifetime.start.p0(i64 4, ptr %5) #6
  call void @llvm.lifetime.start.p0(i64 16, ptr %6) #6
  %21 = load ptr, ptr %3, align 8, !tbaa !8
  %22 = getelementptr inbounds nuw %struct.jv_parser, ptr %21, i32 0, i32 14
  %23 = load ptr, ptr %22, align 8, !tbaa !25
  %24 = getelementptr inbounds i8, ptr %23, i64 0
  %25 = load i8, ptr %24, align 1, !tbaa !19
  %26 = sext i8 %25 to i32
  switch i32 %26, label %55 [
    i32 116, label %27
    i32 102, label %33
    i32 39, label %39
    i32 110, label %40
  ]

27:                                               ; preds = %20
  store ptr @.str.45, ptr %4, align 8, !tbaa !37
  store i32 4, ptr %5, align 4, !tbaa !4
  call void @llvm.lifetime.start.p0(i64 16, ptr %7) #6
  %28 = call { i64, ptr } @jv_true()
  %29 = getelementptr inbounds nuw { i64, ptr }, ptr %7, i32 0, i32 0
  %30 = extractvalue { i64, ptr } %28, 0
  store i64 %30, ptr %29, align 8
  %31 = getelementptr inbounds nuw { i64, ptr }, ptr %7, i32 0, i32 1
  %32 = extractvalue { i64, ptr } %28, 1
  store ptr %32, ptr %31, align 8
  call void @llvm.memcpy.p0.p0.i64(ptr align 8 %6, ptr align 8 %7, i64 16, i1 false), !tbaa.struct !18
  call void @llvm.lifetime.end.p0(i64 16, ptr %7) #6
  br label %55

33:                                               ; preds = %20
  store ptr @.str.46, ptr %4, align 8, !tbaa !37
  store i32 5, ptr %5, align 4, !tbaa !4
  call void @llvm.lifetime.start.p0(i64 16, ptr %8) #6
  %34 = call { i64, ptr } @jv_false()
  %35 = getelementptr inbounds nuw { i64, ptr }, ptr %8, i32 0, i32 0
  %36 = extractvalue { i64, ptr } %34, 0
  store i64 %36, ptr %35, align 8
  %37 = getelementptr inbounds nuw { i64, ptr }, ptr %8, i32 0, i32 1
  %38 = extractvalue { i64, ptr } %34, 1
  store ptr %38, ptr %37, align 8
  call void @llvm.memcpy.p0.p0.i64(ptr align 8 %6, ptr align 8 %8, i64 16, i1 false), !tbaa.struct !18
  call void @llvm.lifetime.end.p0(i64 16, ptr %8) #6
  br label %55

39:                                               ; preds = %20
  store ptr @.str.47, ptr %2, align 8
  store i32 1, ptr %9, align 4
  br label %160

40:                                               ; preds = %20
  %41 = load ptr, ptr %3, align 8, !tbaa !8
  %42 = getelementptr inbounds nuw %struct.jv_parser, ptr %41, i32 0, i32 14
  %43 = load ptr, ptr %42, align 8, !tbaa !25
  %44 = getelementptr inbounds i8, ptr %43, i64 1
  %45 = load i8, ptr %44, align 1, !tbaa !19
  %46 = sext i8 %45 to i32
  %47 = icmp eq i32 %46, 117
  br i1 %47, label %48, label %54

48:                                               ; preds = %40
  store ptr @.str.48, ptr %4, align 8, !tbaa !37
  store i32 4, ptr %5, align 4, !tbaa !4
  call void @llvm.lifetime.start.p0(i64 16, ptr %10) #6
  %49 = call { i64, ptr } @jv_null()
  %50 = getelementptr inbounds nuw { i64, ptr }, ptr %10, i32 0, i32 0
  %51 = extractvalue { i64, ptr } %49, 0
  store i64 %51, ptr %50, align 8
  %52 = getelementptr inbounds nuw { i64, ptr }, ptr %10, i32 0, i32 1
  %53 = extractvalue { i64, ptr } %49, 1
  store ptr %53, ptr %52, align 8
  call void @llvm.memcpy.p0.p0.i64(ptr align 8 %6, ptr align 8 %10, i64 16, i1 false), !tbaa.struct !18
  call void @llvm.lifetime.end.p0(i64 16, ptr %10) #6
  br label %54

54:                                               ; preds = %48, %40
  br label %55

55:                                               ; preds = %54, %20, %33, %27
  %56 = load ptr, ptr %4, align 8, !tbaa !37
  %57 = icmp ne ptr %56, null
  br i1 %57, label %58, label %112

58:                                               ; preds = %55
  %59 = load ptr, ptr %3, align 8, !tbaa !8
  %60 = getelementptr inbounds nuw %struct.jv_parser, ptr %59, i32 0, i32 15
  %61 = load i32, ptr %60, align 8, !tbaa !26
  %62 = load i32, ptr %5, align 4, !tbaa !4
  %63 = icmp ne i32 %61, %62
  br i1 %63, label %64, label %65

64:                                               ; preds = %58
  store ptr @.str.49, ptr %2, align 8
  store i32 1, ptr %9, align 4
  br label %160

65:                                               ; preds = %58
  call void @llvm.lifetime.start.p0(i64 4, ptr %11) #6
  store i32 0, ptr %11, align 4, !tbaa !4
  br label %66

66:                                               ; preds = %89, %65
  %67 = load i32, ptr %11, align 4, !tbaa !4
  %68 = load i32, ptr %5, align 4, !tbaa !4
  %69 = icmp slt i32 %67, %68
  br i1 %69, label %71, label %70

70:                                               ; preds = %66
  store i32 3, ptr %9, align 4
  br label %92

71:                                               ; preds = %66
  %72 = load ptr, ptr %3, align 8, !tbaa !8
  %73 = getelementptr inbounds nuw %struct.jv_parser, ptr %72, i32 0, i32 14
  %74 = load ptr, ptr %73, align 8, !tbaa !25
  %75 = load i32, ptr %11, align 4, !tbaa !4
  %76 = sext i32 %75 to i64
  %77 = getelementptr inbounds i8, ptr %74, i64 %76
  %78 = load i8, ptr %77, align 1, !tbaa !19
  %79 = sext i8 %78 to i32
  %80 = load ptr, ptr %4, align 8, !tbaa !37
  %81 = load i32, ptr %11, align 4, !tbaa !4
  %82 = sext i32 %81 to i64
  %83 = getelementptr inbounds i8, ptr %80, i64 %82
  %84 = load i8, ptr %83, align 1, !tbaa !19
  %85 = sext i8 %84 to i32
  %86 = icmp ne i32 %79, %85
  br i1 %86, label %87, label %88

87:                                               ; preds = %71
  store ptr @.str.49, ptr %2, align 8
  store i32 1, ptr %9, align 4
  br label %92

88:                                               ; preds = %71
  br label %89

89:                                               ; preds = %88
  %90 = load i32, ptr %11, align 4, !tbaa !4
  %91 = add nsw i32 %90, 1
  store i32 %91, ptr %11, align 4, !tbaa !4
  br label %66, !llvm.loop !43

92:                                               ; preds = %87, %70
  call void @llvm.lifetime.end.p0(i64 4, ptr %11) #6
  %93 = load i32, ptr %9, align 4
  switch i32 %93, label %160 [
    i32 3, label %94
  ]

94:                                               ; preds = %92
  br label %95

95:                                               ; preds = %94
  call void @llvm.lifetime.start.p0(i64 8, ptr %12) #6
  %96 = load ptr, ptr %3, align 8, !tbaa !8
  %97 = getelementptr inbounds nuw { i64, ptr }, ptr %6, i32 0, i32 0
  %98 = load i64, ptr %97, align 8
  %99 = getelementptr inbounds nuw { i64, ptr }, ptr %6, i32 0, i32 1
  %100 = load ptr, ptr %99, align 8
  %101 = call ptr @value(ptr noundef %96, i64 %98, ptr %100)
  store ptr %101, ptr %12, align 8, !tbaa !37
  %102 = load ptr, ptr %12, align 8, !tbaa !37
  %103 = icmp ne ptr %102, null
  br i1 %103, label %104, label %106

104:                                              ; preds = %95
  %105 = load ptr, ptr %12, align 8, !tbaa !37
  store ptr %105, ptr %2, align 8
  store i32 1, ptr %9, align 4
  br label %107

106:                                              ; preds = %95
  store i32 0, ptr %9, align 4
  br label %107

107:                                              ; preds = %106, %104
  call void @llvm.lifetime.end.p0(i64 8, ptr %12) #6
  %108 = load i32, ptr %9, align 4
  switch i32 %108, label %160 [
    i32 0, label %109
  ]

109:                                              ; preds = %107
  br label %110

110:                                              ; preds = %109
  br label %111

111:                                              ; preds = %110
  br label %157

112:                                              ; preds = %55
  %113 = load ptr, ptr %3, align 8, !tbaa !8
  %114 = getelementptr inbounds nuw %struct.jv_parser, ptr %113, i32 0, i32 14
  %115 = load ptr, ptr %114, align 8, !tbaa !25
  %116 = load ptr, ptr %3, align 8, !tbaa !8
  %117 = getelementptr inbounds nuw %struct.jv_parser, ptr %116, i32 0, i32 15
  %118 = load i32, ptr %117, align 8, !tbaa !26
  %119 = sext i32 %118 to i64
  %120 = getelementptr inbounds i8, ptr %115, i64 %119
  store i8 0, ptr %120, align 1, !tbaa !19
  call void @llvm.lifetime.start.p0(i64 16, ptr %13) #6
  %121 = load ptr, ptr %3, align 8, !tbaa !8
  %122 = getelementptr inbounds nuw %struct.jv_parser, ptr %121, i32 0, i32 14
  %123 = load ptr, ptr %122, align 8, !tbaa !25
  %124 = call { i64, ptr } @jv_number_with_literal(ptr noundef %123)
  %125 = getelementptr inbounds nuw { i64, ptr }, ptr %13, i32 0, i32 0
  %126 = extractvalue { i64, ptr } %124, 0
  store i64 %126, ptr %125, align 8
  %127 = getelementptr inbounds nuw { i64, ptr }, ptr %13, i32 0, i32 1
  %128 = extractvalue { i64, ptr } %124, 1
  store ptr %128, ptr %127, align 8
  %129 = getelementptr inbounds nuw { i64, ptr }, ptr %13, i32 0, i32 0
  %130 = load i64, ptr %129, align 8
  %131 = getelementptr inbounds nuw { i64, ptr }, ptr %13, i32 0, i32 1
  %132 = load ptr, ptr %131, align 8
  %133 = call i32 @jv_get_kind(i64 %130, ptr %132)
  %134 = icmp eq i32 %133, 0
  br i1 %134, label %135, label %136

135:                                              ; preds = %112
  store ptr @.str.50, ptr %2, align 8
  store i32 1, ptr %9, align 4
  br label %154

136:                                              ; preds = %112
  br label %137

137:                                              ; preds = %136
  call void @llvm.lifetime.start.p0(i64 8, ptr %14) #6
  %138 = load ptr, ptr %3, align 8, !tbaa !8
  %139 = getelementptr inbounds nuw { i64, ptr }, ptr %13, i32 0, i32 0
  %140 = load i64, ptr %139, align 8
  %141 = getelementptr inbounds nuw { i64, ptr }, ptr %13, i32 0, i32 1
  %142 = load ptr, ptr %141, align 8
  %143 = call ptr @value(ptr noundef %138, i64 %140, ptr %142)
  store ptr %143, ptr %14, align 8, !tbaa !37
  %144 = load ptr, ptr %14, align 8, !tbaa !37
  %145 = icmp ne ptr %144, null
  br i1 %145, label %146, label %148

146:                                              ; preds = %137
  %147 = load ptr, ptr %14, align 8, !tbaa !37
  store ptr %147, ptr %2, align 8
  store i32 1, ptr %9, align 4
  br label %149

148:                                              ; preds = %137
  store i32 0, ptr %9, align 4
  br label %149

149:                                              ; preds = %148, %146
  call void @llvm.lifetime.end.p0(i64 8, ptr %14) #6
  %150 = load i32, ptr %9, align 4
  switch i32 %150, label %154 [
    i32 0, label %151
  ]

151:                                              ; preds = %149
  br label %152

152:                                              ; preds = %151
  br label %153

153:                                              ; preds = %152
  store i32 0, ptr %9, align 4
  br label %154

154:                                              ; preds = %153, %149, %135
  call void @llvm.lifetime.end.p0(i64 16, ptr %13) #6
  %155 = load i32, ptr %9, align 4
  switch i32 %155, label %160 [
    i32 0, label %156
  ]

156:                                              ; preds = %154
  br label %157

157:                                              ; preds = %156, %111
  %158 = load ptr, ptr %3, align 8, !tbaa !8
  %159 = getelementptr inbounds nuw %struct.jv_parser, ptr %158, i32 0, i32 15
  store i32 0, ptr %159, align 8, !tbaa !26
  store ptr null, ptr %2, align 8
  store i32 1, ptr %9, align 4
  br label %160

160:                                              ; preds = %157, %154, %107, %92, %64, %39
  call void @llvm.lifetime.end.p0(i64 16, ptr %6) #6
  call void @llvm.lifetime.end.p0(i64 4, ptr %5) #6
  call void @llvm.lifetime.end.p0(i64 8, ptr %4) #6
  br label %161

161:                                              ; preds = %160, %19
  %162 = load ptr, ptr %2, align 8
  ret ptr %162
}